target datalayout = "e-m:e-p270:32:32-p271:32:32-p272:64:64-i64:64-i128:128-f80:128-n8:16:32:64-S128"
target triple = "x86_64-pc-linux-gnu"

; Function Attrs: nounwind uwtable
define i32 @wc_Tls13_HKDF_Extract_ex(ptr noundef %0, ptr noundef %1, i32 noundef %2, ptr noundef %3, i32 noundef %4, i32 noundef %5, ptr noundef %6, i32 noundef %7) #0 {
  %9 = alloca i32, align 4
  %10 = alloca ptr, align 8
  %11 = alloca ptr, align 8
  %12 = alloca i32, align 4
  %13 = alloca ptr, align 8
  %14 = alloca i32, align 4
  %15 = alloca i32, align 4
  %16 = alloca ptr, align 8
  %17 = alloca i32, align 4
  %18 = alloca i32, align 4
  %19 = alloca i32, align 4
  %20 = alloca i32, align 4
  store ptr %0, ptr %10, align 8, !tbaa !3
  store ptr %1, ptr %11, align 8, !tbaa !3
  store i32 %2, ptr %12, align 4, !tbaa !8
  store ptr %3, ptr %13, align 8, !tbaa !3
  store i32 %4, ptr %14, align 4, !tbaa !8
  store i32 %5, ptr %15, align 4, !tbaa !8
  store ptr %6, ptr %16, align 8, !tbaa !10
  store i32 %7, ptr %17, align 4, !tbaa !8
  call void @llvm.lifetime.start.p0(i64 4, ptr %18) #6
  call void @llvm.lifetime.start.p0(i64 4, ptr %19) #6
  store i32 0, ptr %19, align 4, !tbaa !8
  %21 = load i32, ptr %15, align 4, !tbaa !8
  switch i32 %21, label %24 [
    i32 6, label %22
    i32 7, label %23
  ]

22:                                               ; preds = %8
  store i32 32, ptr %19, align 4, !tbaa !8
  br label %25

23:                                               ; preds = %8
  store i32 48, ptr %19, align 4, !tbaa !8
  br label %25

24:                                               ; preds = %8
  store i32 -173, ptr %9, align 4
  store i32 1, ptr %20, align 4
  br label %44

25:                                               ; preds = %23, %22
  %26 = load i32, ptr %14, align 4, !tbaa !8
  %27 = icmp eq i32 %26, 0
  br i1 %27, label %28, label %33

28:                                               ; preds = %25
  %29 = load i32, ptr %19, align 4, !tbaa !8
  store i32 %29, ptr %14, align 4, !tbaa !8
  %30 = load ptr, ptr %13, align 8, !tbaa !3
  %31 = load i32, ptr %19, align 4, !tbaa !8
  %32 = zext i32 %31 to i64
  call void @llvm.memset.p0.i64(ptr align 1 %30, i8 0, i64 %32, i1 false)
  br label %33

33:                                               ; preds = %28, %25
  %34 = load i32, ptr %15, align 4, !tbaa !8
  %35 = load ptr, ptr %11, align 8, !tbaa !3
  %36 = load i32, ptr %12, align 4, !tbaa !8
  %37 = load ptr, ptr %13, align 8, !tbaa !3
  %38 = load i32, ptr %14, align 4, !tbaa !8
  %39 = load ptr, ptr %10, align 8, !tbaa !3
  %40 = load ptr, ptr %16, align 8, !tbaa !10
  %41 = load i32, ptr %17, align 4, !tbaa !8
  %42 = call i32 @wc_HKDF_Extract_ex(i32 noundef %34, ptr noundef %35, i32 noundef %36, ptr noundef %37, i32 noundef %38, ptr noundef %39, ptr noundef %40, i32 noundef %41)
  store i32 %42, ptr %18, align 4, !tbaa !8
  %43 = load i32, ptr %18, align 4, !tbaa !8
  store i32 %43, ptr %9, align 4
  store i32 1, ptr %20, align 4
  br label %44

44:                                               ; preds = %33, %24
  call void @llvm.lifetime.end.p0(i64 4, ptr %19) #6
  call void @llvm.lifetime.end.p0(i64 4, ptr %18) #6
  %45 = load i32, ptr %9, align 4
  ret i32 %45
}

; Function Attrs: nounwind uwtable
define i32 @wc_Tls13_HKDF_Extract(ptr noundef %0, ptr noundef %1, i32 noundef %2, ptr noundef %3, i32 noundef %4, i32 noundef %5) #0 {
  %7 = alloca ptr, align 8
  %8 = alloca ptr, align 8
  %9 = alloca i32, align 4
  %10 = alloca ptr, align 8
  %11 = alloca i32, align 4
  %12 = alloca i32, align 4
  store ptr %0, ptr %7, align 8, !tbaa !3
  store ptr %1, ptr %8, align 8, !tbaa !3
  store i32 %2, ptr %9, align 4, !tbaa !8
  store ptr %3, ptr %10, align 8, !tbaa !3
  store i32 %4, ptr %11, align 4, !tbaa !8
  store i32 %5, ptr %12, align 4, !tbaa !8
  %13 = load ptr, ptr %7, align 8, !tbaa !3
  %14 = load ptr, ptr %8, align 8, !tbaa !3
  %15 = load i32, ptr %9, align 4, !tbaa !8
  %16 = load ptr, ptr %10, align 8, !tbaa !3
  %17 = load i32, ptr %11, align 4, !tbaa !8
  %18 = load i32, ptr %12, align 4, !tbaa !8
  %19 = call i32 @wc_Tls13_HKDF_Extract_ex(ptr noundef %13, ptr noundef %14, i32 noundef %15, ptr noundef %16, i32 noundef %17, i32 noundef %18, ptr noundef null, i32 noundef -2)
  ret i32 %19
}