; Function Attrs: nounwind uwtable
define i32 @wc_Tls13_HKDF_Extract(ptr noundef %0, ptr noundef %1, i32 noundef %2, ptr noundef %3, i32 noundef %4, i32 noundef %5) local_unnamed_addr #0 {
  switch i32 %5, label %wc_Tls13_HKDF_Extract_ex.exit [
    i32 6, label %8
    i32 7, label %7
  ]

7:                                                ; preds = %6
  br label %8

8:                                                ; preds = %7, %6
  %.0.i = phi i32 [ 48, %7 ], [ 32, %6 ]
  %9 = icmp eq i32 %4, 0
  br i1 %9, label %10, label %12

10:                                               ; preds = %8
  %11 = zext nneg i32 %.0.i to i64
  tail call void @llvm.memset.p0.i64(ptr noundef nonnull align 1 dereferenceable(1) %3, i8 0, i64 %11, i1 false)
  br label %12

12:                                               ; preds = %10, %8
  %.015.i = phi i32 [ %.0.i, %10 ], [ %4, %8 ]
  %13 = tail call i32 @wc_HKDF_Extract_ex(i32 noundef %5, ptr noundef %1, i32 noundef %2, ptr noundef %3, i32 noundef %.015.i, ptr noundef %0, ptr noundef null, i32 noundef -2) #6
  br label %wc_Tls13_HKDF_Extract_ex.exit

wc_Tls13_HKDF_Extract_ex.exit:                    ; preds = %6, %12
  %.014.i = phi i32 [ %13, %12 ], [ -173, %6 ]
  ret i32 %.014.i
}